target datalayout = "e-m:e-p270:32:32-p271:32:32-p272:64:64-i64:64-i128:128-f80:128-n8:16:32:64-S128"
target triple = "x86_64-unknown-linux-gnu"

%"class.sat::literal" = type { i32 }
%class.svector.9 = type { %class.vector.10 }
%class.vector.10 = type { ptr }
%class.stopwatch = type <{ %"class.std::chrono::time_point", %"class.std::chrono::duration", i8, [7 x i8] }>
%"class.std::chrono::time_point" = type { %"class.std::chrono::duration" }
%"class.std::chrono::duration" = type { i64 }
%"class.sat::anf_simplifier" = type { ptr, %"struct.sat::anf_simplifier::config", %class.svector.17, %"struct.sat::anf_simplifier::stats", %class.statistics, %class.svector.9, i32, %class.svector.17 }
%"struct.sat::anf_simplifier::config" = type { i32, i32, i8, i8, i8, i8 }
%"struct.sat::anf_simplifier::stats" = type { i32, i32, i32, i32, i32, i32 }
%class.statistics = type { %class.svector.19, %class.svector.21 }
%class.svector.19 = type { %class.vector.20 }
%class.vector.20 = type { ptr }
%class.svector.21 = type { %class.vector.22 }
%class.vector.22 = type { ptr }
%class.svector.17 = type { %class.vector.18 }
%class.vector.18 = type { ptr }
%"class.sat::solver_core" = type { ptr, ptr }
%class.svector.58 = type { %class.vector.59 }
%class.vector.59 = type { ptr }
%class.ptr_vector.42 = type { %class.vector.43 }
%class.vector.43 = type { ptr }
%"struct.std::pair" = type { %"class.sat::literal", %"class.sat::literal" }
%"class.sat::solver" = type { %"class.sat::solver_core", i8, [7 x i8], %"struct.sat::config", %"struct.sat::stats", %class.scoped_ptr, %class.scoped_ptr.23, ptr, %"class.sat::drat", [2 x %"class.sat::clause_allocator"], i8, %class.random_gen, %"class.sat::cleaner", %class.svector.35, %"class.sat::model_converter", i8, %"class.sat::simplifier", %"class.sat::scc", %"class.sat::asymm_branch", %"class.sat::probing", i8, [7 x i8], %"class.sat::mus", %"class.sat::binspr", i8, i8, [6 x i8], %"class.sat::justification", %"class.sat::literal", %class.ptr_vector.42, %class.ptr_vector.42, i32, %class.svector.9, %class.svector.9, %class.svector.9, %class.svector.9, %class.vector.62, %class.svector.35, %class.svector.63, %class.svector.17, %class.svector.17, %class.svector.17, %class.svector.17, %class.svector.17, %class.svector.9, %class.svector.9, i32, %class.svector.48, %class.svector.9, i32, %class.svector.65, %class.svector.65, %class.svector.65, %class.svector.65, %class.svector.65, i32, double, %class.svector.17, %class.svector.17, %class.svector.17, %class.svector.46, i32, i32, i32, i32, i32, i32, %"struct.sat::backoff", i32, i32, %"struct.sat::backoff", %"struct.sat::backoff", %class.var_queue, i32, i32, i32, %class.ema, %class.ema, %class.ema, %class.ema, %class.ema, %class.svector.48, %class.svector.50, %"class.std::__cxx11::basic_string", i8, %class.visit_helper, %class.svector.67, %class.scoped_limit_trail, %class.stopwatch, %class.params_ref, %"struct.sat::no_drat_params", %class.scoped_ptr.60, %class.svector.48, %"class.sat::literal_set", %"class.sat::literal_set", %class.svector.48, i32, i32, i32, i32, i8, ptr, ptr, %class.statistics, i32, i32, i32, i32, i8, i32, i32, i32, i32, i32, i32, i32, double, i32, double, i8, i8, %class.svector.48, i8, %class.svector.65, i32, i32, i32, %class.svector.48, %class.svector.48, %class.svector.46, %class.svector.9, %class.approx_set_tpl, %class.svector.48, %class.svector.48, %class.vector.34, %class.svector.48, %class.svector.58, %class.u_map, %class.svector.48 }
%"struct.sat::config" = type <{ i64, i32, i32, i32, i8, [3 x i8], i32, i32, double, i32, i8, [3 x i8], i32, i8, [3 x i8], i32, [4 x i8], double, double, i32, i32, double, double, i32, [4 x i8], %class.symbol, double, i32, i32, i8, [3 x i8], i32, i32, i8, [3 x i8], i32, i8, [3 x i8], i32, i8, [3 x i8], i32, i8, i8, i8, i8, i32, i8, i8, i8, i8, i8, i8, i8, i8, i32, i8, i8, i8, i8, i32, double, i32, [4 x i8], double, double, double, double, i32, i8, i8, [2 x i8], double, i8, i8, [2 x i8], i32, double, i32, i32, i32, i32, i32, i32, i32, i32, i8, i8, i8, i8, i32, i32, i8, i8, i8, i8, i8, i8, i8, [5 x i8], %class.symbol, i8, i8, i8, i8, i8, i8, [2 x i8], i32, i32, i32, i8, [3 x i8], double, double, double, double, double, i8, [7 x i8] }>
%class.symbol = type { ptr }
%"struct.sat::stats" = type { i32, i32, i32, i32, i32, i32, i32, i32, i32, i32, i32, i32, i32, i32, i32, i32, i32, i32, i32, i32, i32 }
%class.scoped_ptr = type { ptr }
%class.scoped_ptr.23 = type { ptr }
%"class.sat::drat" = type { ptr, %class.svector.24, ptr, %"class.sat::clause_allocator", ptr, ptr, %class.svector.30, %class.svector.32, %class.vector.34, %class.svector.35, i8, i8, i8, i8, i8, %"struct.sat::drat::stats" }
%class.svector.24 = type { %class.vector.25 }
%class.vector.25 = type { ptr }
%"class.sat::clause_allocator" = type { %class.sat_allocator, %class.id_gen }
%class.sat_allocator = type { ptr, i64, %class.ptr_vector.26, ptr, [65 x %class.ptr_vector.28] }
%class.ptr_vector.26 = type { %class.vector.27 }
%class.vector.27 = type { ptr }
%class.ptr_vector.28 = type { %class.vector.29 }
%class.vector.29 = type { ptr }
%class.id_gen = type { i32, %class.svector.9 }
%class.svector.30 = type { %class.vector.31 }
%class.vector.31 = type { ptr }
%class.svector.32 = type { %class.vector.33 }
%class.vector.33 = type { ptr }
%"struct.sat::drat::stats" = type { i32, i32, i32, i32 }
%class.random_gen = type { i32 }
%"class.sat::cleaner" = type { ptr, i32, i32, i32, i32 }
%"class.sat::model_converter" = type { %class.vector.37, i32, %class.svector.17, ptr, %class.svector.38 }
%class.vector.37 = type { ptr }
%class.svector.38 = type { %class.vector.39 }
%class.vector.39 = type { ptr }
%"class.sat::simplifier" = type { ptr, i32, %"class.sat::use_list", %"class.sat::ext_use_list", %"class.sat::clause_set", %class.svector.44, i32, %class.tracked_uint_set, i8, %"class.sat::tmp_clause", %class.svector.46, i32, i32, i8, i8, i8, i8, i32, i8, i8, i32, i8, i32, i8, i8, i32, i32, i32, i32, i32, i32, i32, i32, i32, i32, i8, i32, i8, i8, i32, i32, i32, i32, i32, i32, i32, i32, i32, i32, i32, i8, i32, %class.ptr_vector.42, %class.svector.48, %class.svector.50, %class.svector.50, %class.svector.48 }
%"class.sat::use_list" = type { %class.vector.40 }
%class.vector.40 = type { ptr }
%"class.sat::ext_use_list" = type { %class.vector.41 }
%class.vector.41 = type { ptr }
%"class.sat::clause_set" = type { %class.svector.9, %class.ptr_vector.42 }
%class.svector.44 = type { %class.vector.45 }
%class.vector.45 = type { ptr }
%class.tracked_uint_set = type { %class.svector.46, %class.svector.9 }
%"class.sat::tmp_clause" = type { ptr }
%"class.sat::scc" = type { ptr, i8, i8, i32, i32, %"class.sat::big" }
%"class.sat::big" = type { ptr, i32, %class.vector.52, %class.svector.17, %class.svector.53, %class.svector.53, %class.svector.48, %class.svector.48, i8, i8, %class.vector.52 }
%class.svector.53 = type { %class.vector.54 }
%class.vector.54 = type { ptr }
%class.vector.52 = type { ptr }
%"class.sat::asymm_branch" = type { ptr, %class.params_ref, i64, %class.random_gen, i32, i32, i8, i32, i32, i8, i8, i64, i32, i32, i32, %class.svector.48, %class.svector.48, %class.svector.55, %class.svector.55, %class.svector.48, %class.svector.48 }
%class.svector.55 = type { %class.vector.56 }
%class.vector.56 = type { ptr }
%"class.sat::probing" = type { ptr, i32, %"class.sat::literal_set", %class.svector.48, i32, i8, i32, i8, i8, i64, i32, %class.vector.57, %class.svector.58, %"class.sat::big" }
%class.vector.57 = type { ptr }
%"class.sat::mus" = type <{ ptr, %class.svector.48, %class.svector.48, i8, [7 x i8], %class.svector.35, i32, [4 x i8] }>
%"class.sat::binspr" = type <{ ptr, %class.scoped_ptr.60, i32, i32, %class.vector.61, i32, i32, %class.svector.17, %class.svector.17, %class.svector.48, %class.svector.48, i32, i32, i32, i32, i32, [4 x i32], [5 x i32], [5 x i32], [4 x i8] }>
%class.vector.61 = type { ptr }
%"class.sat::justification" = type <{ i32, [4 x i8], i64, i32, [4 x i8] }>
%class.vector.62 = type { ptr }
%class.svector.35 = type { %class.vector.36 }
%class.vector.36 = type { ptr }
%class.svector.63 = type { %class.vector.64 }
%class.vector.64 = type { ptr }
%"struct.sat::backoff" = type { i32, i32, i32, i32, i32 }
%class.var_queue = type { %class.heap }
%class.heap = type { %"struct.var_queue<svector<unsigned int>>::lt", %class.svector.53, %class.svector.53 }
%"struct.var_queue<svector<unsigned int>>::lt" = type { ptr }
%class.ema = type { double, double, double, i32, i32 }
%class.svector.50 = type { %class.vector.51 }
%class.vector.51 = type { ptr }
%"class.std::__cxx11::basic_string" = type { %"struct.std::__cxx11::basic_string<char>::_Alloc_hider", i64, %union.anon }
%"struct.std::__cxx11::basic_string<char>::_Alloc_hider" = type { ptr }
%union.anon = type { i64, [8 x i8] }
%class.visit_helper = type { %class.svector.9, i32, i32 }
%class.svector.67 = type { %class.vector.68 }
%class.vector.68 = type { ptr }
%class.scoped_limit_trail = type { %class.svector.9, i32, i32 }
%class.params_ref = type { ptr }
%"struct.sat::no_drat_params" = type { %class.params_ref }
%class.scoped_ptr.60 = type { ptr }
%"class.sat::literal_set" = type { %class.tracked_uint_set }
%class.svector.65 = type { %class.vector.66 }
%class.vector.66 = type { ptr }
%class.svector.46 = type { %class.vector.47 }
%class.vector.47 = type { ptr }
%class.approx_set_tpl = type { i32 }
%class.vector.34 = type { ptr }
%class.u_map = type { %class.map.69 }
%class.map.69 = type { %class.table2map.70 }
%class.table2map.70 = type { %class.core_hashtable.71 }
%class.core_hashtable.71 = type <{ ptr, i32, i32, i32, [4 x i8] }>
%class.svector.48 = type { %class.vector.49 }
%class.vector.49 = type { ptr }

; Function Attrs: mustprogress nounwind uwtable
define linkonce_odr hidden noundef zeroext i1 @_ZNK3sat7literal4signEv(ptr noundef nonnull align 4 dereferenceable(4) %this) #4 comdat align 2 {
entry:
  %this.addr = alloca ptr, align 8
  store ptr %this, ptr %this.addr, align 8
  %this1 = load ptr, ptr %this.addr, align 8
  %m_val = getelementptr inbounds %"class.sat::literal", ptr %this1, i32 0, i32 0
  %0 = load i32, ptr %m_val, align 4
  %conv = zext i32 %0 to i64
  %and = and i64 %conv, 1
  %tobool = icmp ne i64 %and, 0
  ret i1 %tobool
}

; Function Attrs: mustprogress nounwind uwtable
define linkonce_odr hidden noundef nonnull align 1 dereferenceable(1) ptr @_ZN6vectorIbLb0EjEixEj(ptr noundef nonnull align 8 dereferenceable(8) %this, i32 noundef %idx) #4 comdat align 2 {
entry:
  %this.addr = alloca ptr, align 8
  %idx.addr = alloca i32, align 4
  store ptr %this, ptr %this.addr, align 8
  store i32 %idx, ptr %idx.addr, align 4
  %this1 = load ptr, ptr %this.addr, align 8
  %m_data = getelementptr inbounds %class.vector.18, ptr %this1, i32 0, i32 0
  %0 = load ptr, ptr %m_data, align 8
  %1 = load i32, ptr %idx.addr, align 4
  %idxprom = zext i32 %1 to i64
  %arrayidx = getelementptr inbounds i8, ptr %0, i64 %idxprom
  ret ptr %arrayidx
}

; Function Attrs: mustprogress nounwind uwtable
define linkonce_odr hidden noundef i32 @_ZNK3sat7literal3varEv(ptr noundef nonnull align 4 dereferenceable(4) %this) #4 comdat align 2 {
entry:
  %this.addr = alloca ptr, align 8
  store ptr %this, ptr %this.addr, align 8
  %this1 = load ptr, ptr %this.addr, align 8
  %m_val = getelementptr inbounds %"class.sat::literal", ptr %this1, i32 0, i32 0
  %0 = load i32, ptr %m_val, align 4
  %shr = lshr i32 %0, 1
  ret i32 %shr
}

; Function Attrs: mustprogress uwtable
define hidden noundef zeroext i1 @_ZN3sat14anf_simplifier13phase_is_trueENS_7literalE(ptr noundef nonnull align 8 dereferenceable(96) %this, i32 %l.coerce) #5 align 2 {
entry:
  %l = alloca %"class.sat::literal", align 4
  %this.addr = alloca ptr, align 8
  %ph = alloca i8, align 1
  %coerce.dive = getelementptr inbounds %"class.sat::literal", ptr %l, i32 0, i32 0
  store i32 %l.coerce, ptr %coerce.dive, align 4
  store ptr %this, ptr %this.addr, align 8
  %this1 = load ptr, ptr %this.addr, align 8
  %s = getelementptr inbounds %"class.sat::anf_simplifier", ptr %this1, i32 0, i32 0
  %0 = load ptr, ptr %s, align 8
  %m_best_phase_size = getelementptr inbounds %"class.sat::solver", ptr %0, i32 0, i32 66
  %1 = load i32, ptr %m_best_phase_size, align 4
  %cmp = icmp ugt i32 %1, 0
  br i1 %cmp, label %cond.true, label %cond.false

cond.true:                                        ; preds = %entry
  %s2 = getelementptr inbounds %"class.sat::anf_simplifier", ptr %this1, i32 0, i32 0
  %2 = load ptr, ptr %s2, align 8
  %m_best_phase = getelementptr inbounds %"class.sat::solver", ptr %2, i32 0, i32 58
  %call = call noundef i32 @_ZNK3sat7literal3varEv(ptr noundef nonnull align 4 dereferenceable(4) %l)
  %call3 = call noundef nonnull align 1 dereferenceable(1) ptr @_ZN6vectorIbLb0EjEixEj(ptr noundef nonnull align 8 dereferenceable(8) %m_best_phase, i32 noundef %call)
  %3 = load i8, ptr %call3, align 1
  %tobool = trunc i8 %3 to i1
  br label %cond.end

cond.false:                                       ; preds = %entry
  %s4 = getelementptr inbounds %"class.sat::anf_simplifier", ptr %this1, i32 0, i32 0
  %4 = load ptr, ptr %s4, align 8
  %m_phase = getelementptr inbounds %"class.sat::solver", ptr %4, i32 0, i32 57
  %call5 = call noundef i32 @_ZNK3sat7literal3varEv(ptr noundef nonnull align 4 dereferenceable(4) %l)
  %call6 = call noundef nonnull align 1 dereferenceable(1) ptr @_ZN6vectorIbLb0EjEixEj(ptr noundef nonnull align 8 dereferenceable(8) %m_phase, i32 noundef %call5)
  %5 = load i8, ptr %call6, align 1
  %tobool7 = trunc i8 %5 to i1
  br label %cond.end

cond.end:                                         ; preds = %cond.false, %cond.true
  %cond = phi i1 [ %tobool, %cond.true ], [ %tobool7, %cond.false ]
  %frombool = zext i1 %cond to i8
  store i8 %frombool, ptr %ph, align 1
  %call8 = call noundef zeroext i1 @_ZNK3sat7literal4signEv(ptr noundef nonnull align 4 dereferenceable(4) %l)
  br i1 %call8, label %cond.true9, label %cond.false11

cond.true9:                                       ; preds = %cond.end
  %6 = load i8, ptr %ph, align 1
  %tobool10 = trunc i8 %6 to i1
  %lnot = xor i1 %tobool10, true
  br label %cond.end13

cond.false11:                                     ; preds = %cond.end
  %7 = load i8, ptr %ph, align 1
  %tobool12 = trunc i8 %7 to i1
  br label %cond.end13

cond.end13:                                       ; preds = %cond.false11, %cond.true9
  %cond14 = phi i1 [ %lnot, %cond.true9 ], [ %tobool12, %cond.false11 ]
  ret i1 %cond14
}

; Function Attrs: mustprogress uwtable
define hidden noundef zeroext i1 @_ZN3sat14anf_simplifier16is_pre_satisfiedERKSt4pairINS_7literalES2_E(ptr noundef nonnull align 8 dereferenceable(96) %this, ptr noundef nonnull align 4 dereferenceable(8) %b) #5 align 2 {
entry:
  %this.addr = alloca ptr, align 8
  %b.addr = alloca ptr, align 8
  %agg.tmp = alloca %"class.sat::literal", align 4
  %agg.tmp2 = alloca %"class.sat::literal", align 4
  store ptr %this, ptr %this.addr, align 8
  store ptr %b, ptr %b.addr, align 8
  %this1 = load ptr, ptr %this.addr, align 8
  %0 = load ptr, ptr %b.addr, align 8
  %first = getelementptr inbounds %"struct.std::pair", ptr %0, i32 0, i32 0
  call void @llvm.memcpy.p0.p0.i64(ptr align 4 %agg.tmp, ptr align 4 %first, i64 4, i1 false)
  %coerce.dive = getelementptr inbounds %"class.sat::literal", ptr %agg.tmp, i32 0, i32 0
  %1 = load i32, ptr %coerce.dive, align 4
  %call = call noundef zeroext i1 @_ZN3sat14anf_simplifier13phase_is_trueENS_7literalE(ptr noundef nonnull align 8 dereferenceable(96) %this1, i32 %1)
  br i1 %call, label %lor.end, label %lor.rhs

lor.rhs:                                          ; preds = %entry
  %2 = load ptr, ptr %b.addr, align 8
  %second = getelementptr inbounds %"struct.std::pair", ptr %2, i32 0, i32 1
  call void @llvm.memcpy.p0.p0.i64(ptr align 4 %agg.tmp2, ptr align 4 %second, i64 4, i1 false)
  %coerce.dive3 = getelementptr inbounds %"class.sat::literal", ptr %agg.tmp2, i32 0, i32 0
  %3 = load i32, ptr %coerce.dive3, align 4
  %call4 = call noundef zeroext i1 @_ZN3sat14anf_simplifier13phase_is_trueENS_7literalE(ptr noundef nonnull align 8 dereferenceable(96) %this1, i32 %3)
  br label %lor.end

lor.end:                                          ; preds = %lor.rhs, %entry
  %4 = phi i1 [ true, %entry ], [ %call4, %lor.rhs ]
  ret i1 %4
}