; Function Attrs: mustprogress nofree norecurse nosync nounwind willreturn memory(read, inaccessiblemem: none) uwtable
define hidden noundef zeroext i1 @_ZN3sat14anf_simplifier16is_pre_satisfiedERKSt4pairINS_7literalES2_E(ptr nocapture noundef nonnull readonly align 8 dereferenceable(96) %this, ptr nocapture noundef nonnull readonly align 4 dereferenceable(8) %b) local_unnamed_addr #9 align 2 {
entry:
  %agg.tmp.sroa.0.0.copyload = load i32, ptr %b, align 4
  %0 = load ptr, ptr %this, align 8
  %m_best_phase_size.i = getelementptr inbounds i8, ptr %0, i64 3652
  %1 = load i32, ptr %m_best_phase_size.i, align 4
  %cmp.not.i = icmp eq i32 %1, 0
  %shr.i2.i = lshr i32 %agg.tmp.sroa.0.0.copyload, 1
  %idxprom.i3.i = zext nneg i32 %shr.i2.i to i64
  %..i = select i1 %cmp.not.i, i64 3600, i64 3608
  %m_phase.i = getelementptr inbounds i8, ptr %0, i64 %..i
  %2 = load ptr, ptr %m_phase.i, align 8
  %arrayidx.i4.i = getelementptr inbounds i8, ptr %2, i64 %idxprom.i3.i
  %cond.in.in.i = load i8, ptr %arrayidx.i4.i, align 1
  %cond.in.i = and i8 %cond.in.in.i, 1
  %cond.i = icmp ne i8 %cond.in.i, 0
  %3 = and i32 %agg.tmp.sroa.0.0.copyload, 1
  %4 = icmp ne i32 %3, 0
  %spec.select.i = xor i1 %4, %cond.i
  br i1 %spec.select.i, label %lor.end, label %lor.rhs

lor.rhs:                                          ; preds = %entry
  %second = getelementptr inbounds i8, ptr %b, i64 4
  %agg.tmp2.sroa.0.0.copyload = load i32, ptr %second, align 4
  %shr.i2.i4 = lshr i32 %agg.tmp2.sroa.0.0.copyload, 1
  %idxprom.i3.i5 = zext nneg i32 %shr.i2.i4 to i64
  %arrayidx.i4.i8 = getelementptr inbounds i8, ptr %2, i64 %idxprom.i3.i5
  %cond.in.in.i9 = load i8, ptr %arrayidx.i4.i8, align 1
  %cond.in.i10 = and i8 %cond.in.in.i9, 1
  %cond.i11 = icmp ne i8 %cond.in.i10, 0
  %5 = and i32 %agg.tmp2.sroa.0.0.copyload, 1
  %6 = icmp ne i32 %5, 0
  %spec.select.i12 = xor i1 %6, %cond.i11
  br label %lor.end

lor.end:                                          ; preds = %lor.rhs, %entry
  %7 = phi i1 [ true, %entry ], [ %spec.select.i12, %lor.rhs ]
  ret i1 %7
}